target datalayout = "e-m:e-p270:32:32-p271:32:32-p272:64:64-i64:64-i128:128-f80:128-n8:16:32:64-S128"
target triple = "x86_64-unknown-linux-gnu"

%"struct.Imf_3_2::sort_helper" = type { ptr }
%"struct.__gnu_cxx::__ops::_Iter_comp_iter" = type { %"struct.Imf_3_2::sort_helper" }

; Function Attrs: mustprogress nounwind uwtable
define linkonce_odr noundef i64 @_ZSt4__lgl(i64 noundef %__n) #0 comdat {
entry:
  %__n.addr = alloca i64, align 8
  store i64 %__n, ptr %__n.addr, align 8
  %0 = load i64, ptr %__n.addr, align 8
  %1 = call i64 @llvm.ctlz.i64(i64 %0, i1 true)
  %cast = trunc i64 %1 to i32
  %sub = sub nsw i32 63, %cast
  %conv = sext i32 %sub to i64
  ret i64 %conv
}

; Function Attrs: mustprogress nounwind uwtable
define linkonce_odr hidden void @_ZN9__gnu_cxx5__ops15_Iter_comp_iterIN7Imf_3_211sort_helperEEC2ES3_(ptr noundef nonnull align 8 dereferenceable(8) %this, ptr %__comp.coerce) unnamed_addr #0 comdat align 2 {
entry:
  %__comp = alloca %"struct.Imf_3_2::sort_helper", align 8
  %this.addr = alloca ptr, align 8
  %coerce.dive = getelementptr inbounds %"struct.Imf_3_2::sort_helper", ptr %__comp, i32 0, i32 0
  store ptr %__comp.coerce, ptr %coerce.dive, align 8
  store ptr %this, ptr %this.addr, align 8
  %this1 = load ptr, ptr %this.addr, align 8
  %_M_comp = getelementptr inbounds %"struct.__gnu_cxx::__ops::_Iter_comp_iter", ptr %this1, i32 0, i32 0
  call void @llvm.memcpy.p0.p0.i64(ptr align 8 %_M_comp, ptr align 8 %__comp, i64 8, i1 false)
  ret void
}

; Function Attrs: mustprogress uwtable
define linkonce_odr hidden void @_ZSt6__sortIPiN9__gnu_cxx5__ops15_Iter_comp_iterIN7Imf_3_211sort_helperEEEEvT_S7_T0_(ptr noundef %__first, ptr noundef %__last, ptr %__comp.coerce) #2 comdat {
entry:
  %__comp = alloca %"struct.__gnu_cxx::__ops::_Iter_comp_iter", align 8
  %__first.addr = alloca ptr, align 8
  %__last.addr = alloca ptr, align 8
  %agg.tmp = alloca %"struct.__gnu_cxx::__ops::_Iter_comp_iter", align 8
  %agg.tmp4 = alloca %"struct.__gnu_cxx::__ops::_Iter_comp_iter", align 8
  %coerce.dive = getelementptr inbounds %"struct.__gnu_cxx::__ops::_Iter_comp_iter", ptr %__comp, i32 0, i32 0
  %coerce.dive1 = getelementptr inbounds %"struct.Imf_3_2::sort_helper", ptr %coerce.dive, i32 0, i32 0
  store ptr %__comp.coerce, ptr %coerce.dive1, align 8
  store ptr %__first, ptr %__first.addr, align 8
  store ptr %__last, ptr %__last.addr, align 8
  %0 = load ptr, ptr %__first.addr, align 8
  %1 = load ptr, ptr %__last.addr, align 8
  %cmp = icmp ne ptr %0, %1
  br i1 %cmp, label %if.then, label %if.end

if.then:                                          ; preds = %entry
  %2 = load ptr, ptr %__first.addr, align 8
  %3 = load ptr, ptr %__last.addr, align 8
  %4 = load ptr, ptr %__last.addr, align 8
  %5 = load ptr, ptr %__first.addr, align 8
  %sub.ptr.lhs.cast = ptrtoint ptr %4 to i64
  %sub.ptr.rhs.cast = ptrtoint ptr %5 to i64
  %sub.ptr.sub = sub i64 %sub.ptr.lhs.cast, %sub.ptr.rhs.cast
  %sub.ptr.div = sdiv exact i64 %sub.ptr.sub, 4
  %call = call noundef i64 @_ZSt4__lgl(i64 noundef %sub.ptr.div)
  %mul = mul nsw i64 %call, 2
  call void @llvm.memcpy.p0.p0.i64(ptr align 8 %agg.tmp, ptr align 8 %__comp, i64 8, i1 false)
  %coerce.dive2 = getelementptr inbounds %"struct.__gnu_cxx::__ops::_Iter_comp_iter", ptr %agg.tmp, i32 0, i32 0
  %coerce.dive3 = getelementptr inbounds %"struct.Imf_3_2::sort_helper", ptr %coerce.dive2, i32 0, i32 0
  %6 = load ptr, ptr %coerce.dive3, align 8
  call void @_ZSt16__introsort_loopIPilN9__gnu_cxx5__ops15_Iter_comp_iterIN7Imf_3_211sort_helperEEEEvT_S7_T0_T1_(ptr noundef %2, ptr noundef %3, i64 noundef %mul, ptr %6)
  %7 = load ptr, ptr %__first.addr, align 8
  %8 = load ptr, ptr %__last.addr, align 8
  call void @llvm.memcpy.p0.p0.i64(ptr align 8 %agg.tmp4, ptr align 8 %__comp, i64 8, i1 false)
  %coerce.dive5 = getelementptr inbounds %"struct.__gnu_cxx::__ops::_Iter_comp_iter", ptr %agg.tmp4, i32 0, i32 0
  %coerce.dive6 = getelementptr inbounds %"struct.Imf_3_2::sort_helper", ptr %coerce.dive5, i32 0, i32 0
  %9 = load ptr, ptr %coerce.dive6, align 8
  call void @_ZSt22__final_insertion_sortIPiN9__gnu_cxx5__ops15_Iter_comp_iterIN7Imf_3_211sort_helperEEEEvT_S7_T0_(ptr noundef %7, ptr noundef %8, ptr %9)
  br label %if.end

if.end:                                           ; preds = %if.then, %entry
  ret void
}

; Function Attrs: mustprogress uwtable
define linkonce_odr hidden ptr @_ZN9__gnu_cxx5__ops16__iter_comp_iterIN7Imf_3_211sort_helperEEENS0_15_Iter_comp_iterIT_EES5_(ptr %__comp.coerce) #2 comdat {
entry:
  %retval = alloca %"struct.__gnu_cxx::__ops::_Iter_comp_iter", align 8
  %__comp = alloca %"struct.Imf_3_2::sort_helper", align 8
  %agg.tmp = alloca %"struct.Imf_3_2::sort_helper", align 8
  %coerce.dive = getelementptr inbounds %"struct.Imf_3_2::sort_helper", ptr %__comp, i32 0, i32 0
  store ptr %__comp.coerce, ptr %coerce.dive, align 8
  call void @llvm.memcpy.p0.p0.i64(ptr align 8 %agg.tmp, ptr align 8 %__comp, i64 8, i1 false)
  %coerce.dive1 = getelementptr inbounds %"struct.Imf_3_2::sort_helper", ptr %agg.tmp, i32 0, i32 0
  %0 = load ptr, ptr %coerce.dive1, align 8
  call void @_ZN9__gnu_cxx5__ops15_Iter_comp_iterIN7Imf_3_211sort_helperEEC2ES3_(ptr noundef nonnull align 8 dereferenceable(8) %retval, ptr %0)
  %coerce.dive2 = getelementptr inbounds %"struct.__gnu_cxx::__ops::_Iter_comp_iter", ptr %retval, i32 0, i32 0
  %coerce.dive3 = getelementptr inbounds %"struct.Imf_3_2::sort_helper", ptr %coerce.dive2, i32 0, i32 0
  %1 = load ptr, ptr %coerce.dive3, align 8
  ret ptr %1
}

; Function Attrs: mustprogress uwtable
define linkonce_odr hidden void @_ZSt4sortIPiN7Imf_3_211sort_helperEEvT_S3_T0_(ptr noundef %__first, ptr noundef %__last, ptr %__comp.coerce) #2 comdat {
entry:
  %__comp = alloca %"struct.Imf_3_2::sort_helper", align 8
  %__first.addr = alloca ptr, align 8
  %__last.addr = alloca ptr, align 8
  %agg.tmp = alloca %"struct.__gnu_cxx::__ops::_Iter_comp_iter", align 8
  %agg.tmp1 = alloca %"struct.Imf_3_2::sort_helper", align 8
  %coerce.dive = getelementptr inbounds %"struct.Imf_3_2::sort_helper", ptr %__comp, i32 0, i32 0
  store ptr %__comp.coerce, ptr %coerce.dive, align 8
  store ptr %__first, ptr %__first.addr, align 8
  store ptr %__last, ptr %__last.addr, align 8
  %0 = load ptr, ptr %__first.addr, align 8
  %1 = load ptr, ptr %__last.addr, align 8
  call void @llvm.memcpy.p0.p0.i64(ptr align 8 %agg.tmp1, ptr align 8 %__comp, i64 8, i1 false)
  %coerce.dive2 = getelementptr inbounds %"struct.Imf_3_2::sort_helper", ptr %agg.tmp1, i32 0, i32 0
  %2 = load ptr, ptr %coerce.dive2, align 8
  %call = call ptr @_ZN9__gnu_cxx5__ops16__iter_comp_iterIN7Imf_3_211sort_helperEEENS0_15_Iter_comp_iterIT_EES5_(ptr %2)
  %coerce.dive3 = getelementptr inbounds %"struct.__gnu_cxx::__ops::_Iter_comp_iter", ptr %agg.tmp, i32 0, i32 0
  %coerce.dive4 = getelementptr inbounds %"struct.Imf_3_2::sort_helper", ptr %coerce.dive3, i32 0, i32 0
  store ptr %call, ptr %coerce.dive4, align 8
  %coerce.dive5 = getelementptr inbounds %"struct.__gnu_cxx::__ops::_Iter_comp_iter", ptr %agg.tmp, i32 0, i32 0
  %coerce.dive6 = getelementptr inbounds %"struct.Imf_3_2::sort_helper", ptr %coerce.dive5, i32 0, i32 0
  %3 = load ptr, ptr %coerce.dive6, align 8
  call void @_ZSt6__sortIPiN9__gnu_cxx5__ops15_Iter_comp_iterIN7Imf_3_211sort_helperEEEEvT_S7_T0_(ptr noundef %0, ptr noundef %1, ptr %3)
  ret void
}

; Function Attrs: mustprogress nounwind uwtable
define linkonce_odr hidden void @_ZN7Imf_3_211sort_helperC2EPPKf(ptr noundef nonnull align 8 dereferenceable(8) %this, ptr noundef %i) unnamed_addr #0 comdat align 2 {
entry:
  %this.addr = alloca ptr, align 8
  %i.addr = alloca ptr, align 8
  store ptr %this, ptr %this.addr, align 8
  store ptr %i, ptr %i.addr, align 8
  %this1 = load ptr, ptr %this.addr, align 8
  %inputs = getelementptr inbounds %"struct.Imf_3_2::sort_helper", ptr %this1, i32 0, i32 0
  %0 = load ptr, ptr %i.addr, align 8
  store ptr %0, ptr %inputs, align 8
  ret void
}

; Function Attrs: mustprogress uwtable
define void @_ZN7Imf_3_215DeepCompositing4sortEPiPPKfPPKciii(ptr noundef nonnull align 8 dereferenceable(8) %this, ptr noundef %order, ptr noundef %inputs, ptr noundef %channel_names, i32 noundef %num_channels, i32 noundef %num_samples, i32 noundef %sources) unnamed_addr #2 align 2 {
entry:
  %this.addr = alloca ptr, align 8
  %order.addr = alloca ptr, align 8
  %inputs.addr = alloca ptr, align 8
  %channel_names.addr = alloca ptr, align 8
  %num_channels.addr = alloca i32, align 4
  %num_samples.addr = alloca i32, align 4
  %sources.addr = alloca i32, align 4
  %agg.tmp = alloca %"struct.Imf_3_2::sort_helper", align 8
  store ptr %this, ptr %this.addr, align 8
  store ptr %order, ptr %order.addr, align 8
  store ptr %inputs, ptr %inputs.addr, align 8
  store ptr %channel_names, ptr %channel_names.addr, align 8
  store i32 %num_channels, ptr %num_channels.addr, align 4
  store i32 %num_samples, ptr %num_samples.addr, align 4
  store i32 %sources, ptr %sources.addr, align 4
  %0 = load ptr, ptr %order.addr, align 8
  %add.ptr = getelementptr inbounds i32, ptr %0, i64 0
  %1 = load ptr, ptr %order.addr, align 8
  %2 = load i32, ptr %num_samples.addr, align 4
  %idx.ext = sext i32 %2 to i64
  %add.ptr2 = getelementptr inbounds i32, ptr %1, i64 %idx.ext
  %3 = load ptr, ptr %inputs.addr, align 8
  call void @_ZN7Imf_3_211sort_helperC2EPPKf(ptr noundef nonnull align 8 dereferenceable(8) %agg.tmp, ptr noundef %3)
  %coerce.dive = getelementptr inbounds %"struct.Imf_3_2::sort_helper", ptr %agg.tmp, i32 0, i32 0
  %4 = load ptr, ptr %coerce.dive, align 8
  call void @_ZSt4sortIPiN7Imf_3_211sort_helperEEvT_S3_T0_(ptr noundef %add.ptr, ptr noundef %add.ptr2, ptr %4)
  ret void
}