; Function Attrs: mustprogress uwtable
define void @_ZN7Imf_3_215DeepCompositing4sortEPiPPKfPPKciii(ptr nocapture nonnull readnone align 8 %this, ptr noundef %order, ptr noundef %inputs, ptr nocapture readnone %channel_names, i32 %num_channels, i32 noundef %num_samples, i32 %sources) unnamed_addr #4 align 2 {
entry:
  %cmp.not.i.i = icmp eq i32 %num_samples, 0
  br i1 %cmp.not.i.i, label %_ZSt4sortIPiN7Imf_3_211sort_helperEEvT_S3_T0_.exit, label %if.then.i.i

if.then.i.i:                                      ; preds = %entry
  %idx.ext = sext i32 %num_samples to i64
  %add.ptr2 = getelementptr inbounds i32, ptr %order, i64 %idx.ext
  %0 = tail call i64 @llvm.ctlz.i64(i64 %idx.ext, i1 true), !range !8
  %sub.i.i.i = shl nuw nsw i64 %0, 1
  %mul.i.i = xor i64 %sub.i.i.i, 126
  tail call void @_ZSt16__introsort_loopIPilN9__gnu_cxx5__ops15_Iter_comp_iterIN7Imf_3_211sort_helperEEEEvT_S7_T0_T1_(ptr noundef %order, ptr noundef nonnull %add.ptr2, i64 noundef %mul.i.i, ptr %inputs)
  tail call void @_ZSt22__final_insertion_sortIPiN9__gnu_cxx5__ops15_Iter_comp_iterIN7Imf_3_211sort_helperEEEEvT_S7_T0_(ptr noundef %order, ptr noundef nonnull %add.ptr2, ptr %inputs)
  br label %_ZSt4sortIPiN7Imf_3_211sort_helperEEvT_S3_T0_.exit

_ZSt4sortIPiN7Imf_3_211sort_helperEEvT_S3_T0_.exit: ; preds = %entry, %if.then.i.i
  ret void
}